; ModuleID = '36/141.c'
source_filename = "36/141.c"
target datalayout = "e-m:e-p270:32:32-p271:32:32-p272:64:64-i64:64-f80:128-n8:16:32:64-S128"
target triple = "x86_64-pc-linux-gnu"

@.str = private unnamed_addr constant [5 x i8] c"%s%s\00", align 1
@.str.1 = private unnamed_addr constant [3 x i8] c"%s\00", align 1
@.str.2 = private unnamed_addr constant [3 x i8] c"NO\00", align 1
@.str.3 = private unnamed_addr constant [4 x i8] c"YES\00", align 1

; Function Attrs: noinline nounwind uwtable
define dso_local void @main() #0 {
  %1 = alloca [100 x i8], align 16
  %2 = alloca [100 x i8], align 16
  %3 = alloca i32, align 4
  %4 = alloca i32, align 4
  %5 = alloca i32, align 4
  %6 = alloca i32, align 4
  %7 = alloca i32, align 4
  %8 = alloca i32, align 4
  %9 = alloca i32, align 4
  %10 = alloca i32, align 4
  %11 = alloca i32, align 4
  %12 = alloca i32, align 4
  %13 = alloca i32, align 4
  %14 = alloca i32, align 4
  %15 = alloca i32, align 4
  store i32 1, i32* %15, align 4
  %16 = getelementptr inbounds [100 x i8], [100 x i8]* %1, i64 0, i64 0
  %17 = getelementptr inbounds [100 x i8], [100 x i8]* %2, i64 0, i64 0
  %18 = call i32 (i8*, ...) @__isoc99_scanf(i8* getelementptr inbounds ([5 x i8], [5 x i8]* @.str, i64 0, i64 0), i8* %16, i8* %17)
  %19 = getelementptr inbounds [100 x i8], [100 x i8]* %1, i64 0, i64 0
  %20 = call i64 @strlen(i8* %19) #3
  %21 = trunc i64 %20 to i32
  store i32 %21, i32* %3, align 4
  %22 = getelementptr inbounds [100 x i8], [100 x i8]* %2, i64 0, i64 0
  %23 = call i64 @strlen(i8* %22) #3
  %24 = trunc i64 %23 to i32
  store i32 %24, i32* %4, align 4
  %25 = load i32, i32* %3, align 4
  %26 = load i32, i32* %4, align 4
  %27 = icmp ne i32 %25, %26
  br i1 %27, label %28, label %30

28:                                               ; preds = %0
  %29 = call i32 (i8*, ...) @printf(i8* getelementptr inbounds ([3 x i8], [3 x i8]* @.str.1, i64 0, i64 0), i8* getelementptr inbounds ([3 x i8], [3 x i8]* @.str.2, i64 0, i64 0))
  br label %198

30:                                               ; preds = %0
  store i32 0, i32* %6, align 4
  br label %31

31:                                               ; preds = %41, %30
  %32 = load i32, i32* %6, align 4
  %33 = load i32, i32* %3, align 4
  %34 = icmp slt i32 %32, %33
  br i1 %34, label %35, label %44

35:                                               ; preds = %31
  %36 = load i32, i32* %6, align 4
  %37 = sext i32 %36 to i64
  %38 = getelementptr inbounds [100 x i8], [100 x i8]* %1, i64 0, i64 %37
  %39 = load i8, i8* %38, align 1
  %40 = sext i8 %39 to i32
  br label %41

41:                                               ; preds = %35
  %42 = load i32, i32* %6, align 4
  %43 = add nsw i32 %42, 1
  store i32 %43, i32* %6, align 4
  br label %31

44:                                               ; preds = %31
  store i32 0, i32* %7, align 4
  br label %45

45:                                               ; preds = %55, %44
  %46 = load i32, i32* %7, align 4
  %47 = load i32, i32* %4, align 4
  %48 = icmp slt i32 %46, %47
  br i1 %48, label %49, label %58

49:                                               ; preds = %45
  %50 = load i32, i32* %7, align 4
  %51 = sext i32 %50 to i64
  %52 = getelementptr inbounds [100 x i8], [100 x i8]* %2, i64 0, i64 %51
  %53 = load i8, i8* %52, align 1
  %54 = sext i8 %53 to i32
  br label %55

55:                                               ; preds = %49
  %56 = load i32, i32* %7, align 4
  %57 = add nsw i32 %56, 1
  store i32 %57, i32* %7, align 4
  br label %45

58:                                               ; preds = %45
  store i32 0, i32* %11, align 4
  br label %59

59:                                               ; preds = %110, %58
  %60 = load i32, i32* %11, align 4
  %61 = load i32, i32* %3, align 4
  %62 = sub nsw i32 %61, 1
  %63 = icmp slt i32 %60, %62
  br i1 %63, label %64, label %113

64:                                               ; preds = %59
  store i32 0, i32* %12, align 4
  br label %65

65:                                               ; preds = %106, %64
  %66 = load i32, i32* %12, align 4
  %67 = load i32, i32* %3, align 4
  %68 = sub nsw i32 %67, 1
  %69 = load i32, i32* %11, align 4
  %70 = sub nsw i32 %68, %69
  %71 = icmp slt i32 %66, %70
  br i1 %71, label %72, label %109

72:                                               ; preds = %65
  %73 = load i32, i32* %12, align 4
  %74 = sext i32 %73 to i64
  %75 = getelementptr inbounds [100 x i8], [100 x i8]* %1, i64 0, i64 %74
  %76 = load i8, i8* %75, align 1
  %77 = sext i8 %76 to i32
  %78 = load i32, i32* %12, align 4
  %79 = add nsw i32 %78, 1
  %80 = sext i32 %79 to i64
  %81 = getelementptr inbounds [100 x i8], [100 x i8]* %1, i64 0, i64 %80
  %82 = load i8, i8* %81, align 1
  %83 = sext i8 %82 to i32
  %84 = icmp sge i32 %77, %83
  br i1 %84, label %85, label %105

85:                                               ; preds = %72
  %86 = load i32, i32* %12, align 4
  %87 = sext i32 %86 to i64
  %88 = getelementptr inbounds [100 x i8], [100 x i8]* %1, i64 0, i64 %87
  %89 = load i8, i8* %88, align 1
  %90 = sext i8 %89 to i32
  store i32 %90, i32* %13, align 4
  %91 = load i32, i32* %12, align 4
  %92 = add nsw i32 %91, 1
  %93 = sext i32 %92 to i64
  %94 = getelementptr inbounds [100 x i8], [100 x i8]* %1, i64 0, i64 %93
  %95 = load i8, i8* %94, align 1
  %96 = load i32, i32* %12, align 4
  %97 = sext i32 %96 to i64
  %98 = getelementptr inbounds [100 x i8], [100 x i8]* %1, i64 0, i64 %97
  store i8 %95, i8* %98, align 1
  %99 = load i32, i32* %13, align 4
  %100 = trunc i32 %99 to i8
  %101 = load i32, i32* %12, align 4
  %102 = add nsw i32 %101, 1
  %103 = sext i32 %102 to i64
  %104 = getelementptr inbounds [100 x i8], [100 x i8]* %1, i64 0, i64 %103
  store i8 %100, i8* %104, align 1
  br label %105

105:                                              ; preds = %85, %72
  br label %106

106:                                              ; preds = %105
  %107 = load i32, i32* %12, align 4
  %108 = add nsw i32 %107, 1
  store i32 %108, i32* %12, align 4
  br label %65

109:                                              ; preds = %65
  br label %110

110:                                              ; preds = %109
  %111 = load i32, i32* %11, align 4
  %112 = add nsw i32 %111, 1
  store i32 %112, i32* %11, align 4
  br label %59

113:                                              ; preds = %59
  store i32 0, i32* %9, align 4
  br label %114

114:                                              ; preds = %165, %113
  %115 = load i32, i32* %9, align 4
  %116 = load i32, i32* %4, align 4
  %117 = sub nsw i32 %116, 1
  %118 = icmp slt i32 %115, %117
  br i1 %118, label %119, label %168

119:                                              ; preds = %114
  store i32 0, i32* %10, align 4
  br label %120

120:                                              ; preds = %161, %119
  %121 = load i32, i32* %10, align 4
  %122 = load i32, i32* %4, align 4
  %123 = sub nsw i32 %122, 1
  %124 = load i32, i32* %9, align 4
  %125 = sub nsw i32 %123, %124
  %126 = icmp slt i32 %121, %125
  br i1 %126, label %127, label %164

127:                                              ; preds = %120
  %128 = load i32, i32* %10, align 4
  %129 = sext i32 %128 to i64
  %130 = getelementptr inbounds [100 x i8], [100 x i8]* %2, i64 0, i64 %129
  %131 = load i8, i8* %130, align 1
  %132 = sext i8 %131 to i32
  %133 = load i32, i32* %10, align 4
  %134 = add nsw i32 %133, 1
  %135 = sext i32 %134 to i64
  %136 = getelementptr inbounds [100 x i8], [100 x i8]* %2, i64 0, i64 %135
  %137 = load i8, i8* %136, align 1
  %138 = sext i8 %137 to i32
  %139 = icmp sge i32 %132, %138
  br i1 %139, label %140, label %160

140:                                              ; preds = %127
  %141 = load i32, i32* %10, align 4
  %142 = sext i32 %141 to i64
  %143 = getelementptr inbounds [100 x i8], [100 x i8]* %2, i64 0, i64 %142
  %144 = load i8, i8* %143, align 1
  %145 = sext i8 %144 to i32
  store i32 %145, i32* %14, align 4
  %146 = load i32, i32* %10, align 4
  %147 = add nsw i32 %146, 1
  %148 = sext i32 %147 to i64
  %149 = getelementptr inbounds [100 x i8], [100 x i8]* %2, i64 0, i64 %148
  %150 = load i8, i8* %149, align 1
  %151 = load i32, i32* %10, align 4
  %152 = sext i32 %151 to i64
  %153 = getelementptr inbounds [100 x i8], [100 x i8]* %2, i64 0, i64 %152
  store i8 %150, i8* %153, align 1
  %154 = load i32, i32* %14, align 4
  %155 = trunc i32 %154 to i8
  %156 = load i32, i32* %10, align 4
  %157 = add nsw i32 %156, 1
  %158 = sext i32 %157 to i64
  %159 = getelementptr inbounds [100 x i8], [100 x i8]* %2, i64 0, i64 %158
  store i8 %155, i8* %159, align 1
  br label %160

160:                                              ; preds = %140, %127
  br label %161

161:                                              ; preds = %160
  %162 = load i32, i32* %10, align 4
  %163 = add nsw i32 %162, 1
  store i32 %163, i32* %10, align 4
  br label %120

164:                                              ; preds = %120
  br label %165

165:                                              ; preds = %164
  %166 = load i32, i32* %9, align 4
  %167 = add nsw i32 %166, 1
  store i32 %167, i32* %9, align 4
  br label %114

168:                                              ; preds = %114
  store i32 0, i32* %5, align 4
  br label %169

169:                                              ; preds = %187, %168
  %170 = load i32, i32* %5, align 4
  %171 = load i32, i32* %3, align 4
  %172 = icmp slt i32 %170, %171
  br i1 %172, label %173, label %190

173:                                              ; preds = %169
  %174 = load i32, i32* %5, align 4
  %175 = sext i32 %174 to i64
  %176 = getelementptr inbounds [100 x i8], [100 x i8]* %1, i64 0, i64 %175
  %177 = load i8, i8* %176, align 1
  %178 = sext i8 %177 to i32
  %179 = load i32, i32* %5, align 4
  %180 = sext i32 %179 to i64
  %181 = getelementptr inbounds [100 x i8], [100 x i8]* %2, i64 0, i64 %180
  %182 = load i8, i8* %181, align 1
  %183 = sext i8 %182 to i32
  %184 = icmp ne i32 %178, %183
  br i1 %184, label %185, label %186

185:                                              ; preds = %173
  store i32 0, i32* %15, align 4
  br label %186

186:                                              ; preds = %185, %173
  br label %187

187:                                              ; preds = %186
  %188 = load i32, i32* %5, align 4
  %189 = add nsw i32 %188, 1
  store i32 %189, i32* %5, align 4
  br label %169

190:                                              ; preds = %169
  %191 = load i32, i32* %15, align 4
  %192 = icmp eq i32 %191, 0
  br i1 %192, label %193, label %195

193:                                              ; preds = %190
  %194 = call i32 (i8*, ...) @printf(i8* getelementptr inbounds ([3 x i8], [3 x i8]* @.str.1, i64 0, i64 0), i8* getelementptr inbounds ([3 x i8], [3 x i8]* @.str.2, i64 0, i64 0))
  br label %197

195:                                              ; preds = %190
  %196 = call i32 (i8*, ...) @printf(i8* getelementptr inbounds ([3 x i8], [3 x i8]* @.str.1, i64 0, i64 0), i8* getelementptr inbounds ([4 x i8], [4 x i8]* @.str.3, i64 0, i64 0))
  br label %197

197:                                              ; preds = %195, %193
  br label %198

198:                                              ; preds = %197, %28
  ret void
}

declare dso_local i32 @__isoc99_scanf(i8*, ...) #1

; Function Attrs: nounwind readonly
declare dso_local i64 @strlen(i8*) #2

declare dso_local i32 @printf(i8*, ...) #1


!llvm.module.flags = !{!0}
!llvm.ident = !{!1}

!0 = !{i32 1, !"wchar_size", i32 4}
!1 = !{!"clang version 10.0.0-4ubuntu1 "}
